target datalayout = "e-m:e-p270:32:32-p271:32:32-p272:64:64-i64:64-i128:128-f80:128-n8:16:32:64-S128"
target triple = "x86_64-pc-linux-gnu"

%struct.prolog_state = type { ptr, i32, i32, i32, i32, i32 }
%struct.encoding = type { [4 x ptr], [2 x ptr], ptr, ptr, ptr, ptr, ptr, ptr, ptr, ptr, ptr, ptr, i32, i8, i8 }

@KW_EMPTY = internal constant [6 x i8] c"EMPTY\00", align 1
@KW_ANY = internal constant [4 x i8] c"ANY\00", align 1

; Function Attrs: nounwind uwtable
define internal i32 @common(ptr noundef %0, i32 noundef %1) #0 {
  %3 = alloca i32, align 4
  %4 = alloca ptr, align 8
  %5 = alloca i32, align 4
  store ptr %0, ptr %4, align 8, !tbaa !3
  store i32 %1, ptr %5, align 4, !tbaa !14
  %6 = load ptr, ptr %4, align 8, !tbaa !3
  %7 = getelementptr inbounds nuw %struct.prolog_state, ptr %6, i32 0, i32 4
  %8 = load i32, ptr %7, align 4, !tbaa !11
  %9 = icmp ne i32 %8, 0
  br i1 %9, label %14, label %10

10:                                               ; preds = %2
  %11 = load i32, ptr %5, align 4, !tbaa !14
  %12 = icmp eq i32 %11, 28
  br i1 %12, label %13, label %14

13:                                               ; preds = %10
  store i32 59, ptr %3, align 4
  br label %17

14:                                               ; preds = %10, %2
  %15 = load ptr, ptr %4, align 8, !tbaa !3
  %16 = getelementptr inbounds nuw %struct.prolog_state, ptr %15, i32 0, i32 0
  store ptr @error, ptr %16, align 8, !tbaa !8
  store i32 -1, ptr %3, align 4
  br label %17

17:                                               ; preds = %14, %13
  %18 = load i32, ptr %3, align 4
  ret i32 %18
}

; Function Attrs: nounwind uwtable
define internal i32 @element1(ptr noundef %0, i32 noundef %1, ptr noundef %2, ptr noundef %3, ptr noundef %4) #0 {
  %6 = alloca i32, align 4
  %7 = alloca ptr, align 8
  %8 = alloca i32, align 4
  %9 = alloca ptr, align 8
  %10 = alloca ptr, align 8
  %11 = alloca ptr, align 8
  store ptr %0, ptr %7, align 8, !tbaa !3
  store i32 %1, ptr %8, align 4, !tbaa !14
  store ptr %2, ptr %9, align 8, !tbaa !15
  store ptr %3, ptr %10, align 8, !tbaa !15
  store ptr %4, ptr %11, align 8, !tbaa !17
  %12 = load i32, ptr %8, align 4, !tbaa !14
  switch i32 %12, label %48 [
    i32 15, label %13
    i32 18, label %14
    i32 23, label %43
  ]

13:                                               ; preds = %5
  store i32 39, ptr %6, align 4
  br label %52

14:                                               ; preds = %5
  %15 = load ptr, ptr %11, align 8, !tbaa !17
  %16 = getelementptr inbounds nuw %struct.encoding, ptr %15, i32 0, i32 2
  %17 = load ptr, ptr %16, align 8, !tbaa !19
  %18 = load ptr, ptr %11, align 8, !tbaa !17
  %19 = load ptr, ptr %9, align 8, !tbaa !15
  %20 = load ptr, ptr %10, align 8, !tbaa !15
  %21 = call i32 %17(ptr noundef %18, ptr noundef %19, ptr noundef %20, ptr noundef @KW_EMPTY)
  %22 = icmp ne i32 %21, 0
  br i1 %22, label %23, label %28

23:                                               ; preds = %14
  %24 = load ptr, ptr %7, align 8, !tbaa !3
  %25 = getelementptr inbounds nuw %struct.prolog_state, ptr %24, i32 0, i32 0
  store ptr @declClose, ptr %25, align 8, !tbaa !8
  %26 = load ptr, ptr %7, align 8, !tbaa !3
  %27 = getelementptr inbounds nuw %struct.prolog_state, ptr %26, i32 0, i32 2
  store i32 39, ptr %27, align 4, !tbaa !22
  store i32 42, ptr %6, align 4
  br label %52

28:                                               ; preds = %14
  %29 = load ptr, ptr %11, align 8, !tbaa !17
  %30 = getelementptr inbounds nuw %struct.encoding, ptr %29, i32 0, i32 2
  %31 = load ptr, ptr %30, align 8, !tbaa !19
  %32 = load ptr, ptr %11, align 8, !tbaa !17
  %33 = load ptr, ptr %9, align 8, !tbaa !15
  %34 = load ptr, ptr %10, align 8, !tbaa !15
  %35 = call i32 %31(ptr noundef %32, ptr noundef %33, ptr noundef %34, ptr noundef @KW_ANY)
  %36 = icmp ne i32 %35, 0
  br i1 %36, label %37, label %42

37:                                               ; preds = %28
  %38 = load ptr, ptr %7, align 8, !tbaa !3
  %39 = getelementptr inbounds nuw %struct.prolog_state, ptr %38, i32 0, i32 0
  store ptr @declClose, ptr %39, align 8, !tbaa !8
  %40 = load ptr, ptr %7, align 8, !tbaa !3
  %41 = getelementptr inbounds nuw %struct.prolog_state, ptr %40, i32 0, i32 2
  store i32 39, ptr %41, align 4, !tbaa !22
  store i32 41, ptr %6, align 4
  br label %52

42:                                               ; preds = %28
  br label %48

43:                                               ; preds = %5
  %44 = load ptr, ptr %7, align 8, !tbaa !3
  %45 = getelementptr inbounds nuw %struct.prolog_state, ptr %44, i32 0, i32 0
  store ptr @element2, ptr %45, align 8, !tbaa !8
  %46 = load ptr, ptr %7, align 8, !tbaa !3
  %47 = getelementptr inbounds nuw %struct.prolog_state, ptr %46, i32 0, i32 1
  store i32 1, ptr %47, align 8, !tbaa !25
  store i32 44, ptr %6, align 4
  br label %52

48:                                               ; preds = %5, %42
  %49 = load ptr, ptr %7, align 8, !tbaa !3
  %50 = load i32, ptr %8, align 4, !tbaa !14
  %51 = call i32 @common(ptr noundef %49, i32 noundef %50)
  store i32 %51, ptr %6, align 4
  br label %52

52:                                               ; preds = %48, %43, %37, %23, %13
  %53 = load i32, ptr %6, align 4
  ret i32 %53
}